(ilogin
LoginInformation
p0
(dp1
S'SIS'
p2
(icommon
LoginInfo
p3
(dp4
S'username'
p5
g5
sS'use'
p6
I00
sS'password'
p7
g7
sbsS'LMS'
p8
(icommon
LoginInfo
p9
(dp10
g5
S'username2'
p11
sg6
I01
sg7
S'password2'
p12
sbsb.